; Function Attrs: mustprogress nounwind uwtable
define dso_local noundef nonnull align 8 dereferenceable(24) ptr @_ZN4i18n12phonenumbers11UnicodeText25UnsafeTakeOwnershipOfUTF8EPcii(ptr noundef nonnull returned align 8 dereferenceable(24) %0, ptr noundef %1, i32 noundef %2, i32 noundef %3) local_unnamed_addr #6 align 2 {
  %5 = load ptr, ptr %0, align 8, !tbaa !20
  %6 = icmp eq ptr %1, %5
  br i1 %6, label %_ZN4i18n12phonenumbers11UnicodeText4Repr15TakeOwnershipOfEPcii.exit, label %7

7:                                                ; preds = %4
  %8 = getelementptr inbounds nuw i8, ptr %0, i64 16
  %9 = load i8, ptr %8, align 8, !tbaa !17, !range !18, !noundef !19
  %10 = trunc nuw i8 %9 to i1
  %.not.i = icmp ne ptr %5, null
  %or.cond.not.i = and i1 %.not.i, %10
  br i1 %or.cond.not.i, label %11, label %12

11:                                               ; preds = %7
  tail call void @_ZdaPv(ptr noundef nonnull %5) #26
  br label %12

12:                                               ; preds = %11, %7
  store ptr %1, ptr %0, align 8, !tbaa !20
  %13 = getelementptr inbounds nuw i8, ptr %0, i64 8
  store i32 %2, ptr %13, align 8, !tbaa !21
  %14 = getelementptr inbounds nuw i8, ptr %0, i64 12
  store i32 %3, ptr %14, align 4, !tbaa !13
  store i8 1, ptr %8, align 8, !tbaa !17
  br label %_ZN4i18n12phonenumbers11UnicodeText4Repr15TakeOwnershipOfEPcii.exit

_ZN4i18n12phonenumbers11UnicodeText4Repr15TakeOwnershipOfEPcii.exit: ; preds = %4, %12
  ret ptr %0
}